(lp0
(lp1
I-16
aI-11
aS'wall'
p2
aa(lp3
I10
aI-10
ag2
aa(lp4
I38
aI-12
ag2
aa(lp5
I62
aI-11
ag2
aa(lp6
I90
aI-11
ag2
aa(lp7
I119
aI-11
ag2
aa(lp8
I147
aI-11
ag2
aa(lp9
I181
aI-11
ag2
aa(lp10
I213
aI-11
ag2
aa(lp11
I249
aI-11
ag2
aa(lp12
I282
aI-10
ag2
aa(lp13
I305
aI-12
ag2
aa(lp14
I334
aI-12
ag2
aa(lp15
I363
aI-11
ag2
aa(lp16
I397
aI-9
ag2
aa(lp17
I421
aI-11
ag2
aa(lp18
I450
aI-11
ag2
aa(lp19
I480
aI-11
ag2
aa(lp20
I505
aI-11
ag2
aa(lp21
I530
aI-12
ag2
aa(lp22
I554
aI-11
ag2
aa(lp23
I584
aI-11
ag2
aa(lp24
I611
aI-11
ag2
aa(lp25
I638
aI-10
ag2
aa(lp26
I660
aI-12
ag2
aa(lp27
I685
aI-10
ag2
aa(lp28
I-12
aI80
ag2
aa(lp29
I26
aI80
ag2
aa(lp30
I53
aI81
ag2
aa(lp31
I82
aI81
ag2
aa(lp32
I117
aI82
ag2
aa(lp33
I146
aI81
ag2
aa(lp34
I169
aI81
ag2
aa(lp35
I198
aI82
ag2
aa(lp36
I228
aI82
ag2
aa(lp37
I258
aI82
ag2
aa(lp38
I291
aI81
ag2
aa(lp39
I322
aI80
ag2
aa(lp40
I353
aI79
ag2
aa(lp41
I387
aI80
ag2
aa(lp42
I421
aI80
ag2
aa(lp43
I451
aI78
ag2
aa(lp44
I481
aI80
ag2
aa(lp45
I506
aI80
ag2
aa(lp46
I535
aI80
ag2
aa(lp47
I565
aI83
ag2
aa(lp48
I592
aI100
ag2
aa(lp49
I607
aI124
ag2
aa(lp50
I613
aI140
ag2
aa(lp51
I614
aI161
ag2
aa(lp52
I607
aI178
ag2
aa(lp53
I586
aI200
ag2
aa(lp54
I557
aI212
ag2
aa(lp55
I528
aI223
ag2
aa(lp56
I498
aI234
ag2
aa(lp57
I464
aI249
ag2
aa(lp58
I431
aI258
ag2
aa(lp59
I399
aI256
ag2
aa(lp60
I366
aI250
ag2
aa(lp61
I334
aI238
ag2
aa(lp62
I301
aI229
ag2
aa(lp63
I269
aI216
ag2
aa(lp64
I239
aI204
ag2
aa(lp65
I204
aI195
ag2
aa(lp66
I175
aI188
ag2
aa(lp67
I145
aI177
ag2
aa(lp68
I111
aI167
ag2
aa(lp69
I77
aI165
ag2
aa(lp70
I46
aI175
ag2
aa(lp71
I27
aI196
ag2
aa(lp72
I10
aI218
ag2
aa(lp73
I-7
aI234
ag2
aa(lp74
I-9
aI252
ag2
aa(lp75
I-12
aI277
ag2
aa(lp76
I-12
aI298
ag2
aa(lp77
I-4
aI320
ag2
aa(lp78
I-6
aI341
ag2
aa(lp79
I-5
aI362
ag2
aa(lp80
I-7
aI386
ag2
aa(lp81
I-8
aI411
ag2
aa(lp82
I691
aI11
ag2
aa(lp83
I726
aI29
ag2
aa(lp84
I751
aI50
ag2
aa(lp85
I763
aI75
ag2
aa(lp86
I774
aI135
ag2
aa(lp87
I768
aI91
ag2
aa(lp88
I769
aI112
ag2
aa(lp89
I771
aI156
ag2
aa(lp90
I773
aI175
ag2
aa(lp91
I769
aI198
ag2
aa(lp92
I764
aI214
ag2
aa(lp93
I760
aI236
ag2
aa(lp94
I745
aI258
ag2
aa(lp95
I720
aI280
ag2
aa(lp96
I696
aI297
ag2
aa(lp97
I668
aI315
ag2
aa(lp98
I639
aI330
ag2
aa(lp99
I604
aI348
ag2
aa(lp100
I570
aI363
ag2
aa(lp101
I540
aI373
ag2
aa(lp102
I505
aI378
ag2
aa(lp103
I473
aI383
ag2
aa(lp104
I439
aI388
ag2
aa(lp105
I404
aI388
ag2
aa(lp106
I371
aI384
ag2
aa(lp107
I338
aI376
ag2
aa(lp108
I298
aI359
ag2
aa(lp109
I265
aI346
ag2
aa(lp110
I236
aI328
ag2
aa(lp111
I201
aI317
ag2
aa(lp112
I169
aI315
ag2
aa(lp113
I142
aI327
ag2
aa(lp114
I135
aI344
ag2
aa(lp115
I135
aI367
ag2
aa(lp116
I136
aI391
ag2
aa(lp117
I131
aI413
ag2
aa(lp118
I130
aI434
ag2
aa(lp119
I132
aI451
ag2
aa(lp120
I-9
aI433
ag2
aa(lp121
I-8
aI448
ag2
aa(lp122
I-8
aI467
ag2
aa(lp123
I4
aI488
ag2
aa(lp124
I4
aI512
ag2
aa(lp125
I20
aI531
ag2
aa(lp126
I51
aI576
ag2
aa(lp127
I37
aI551
ag2
aa(lp128
I298
aI495
ag2
aa(lp129
I331
aI492
ag2
aa(lp130
I362
aI479
ag2
aa(lp131
I400
aI466
ag2
aa(lp132
I434
aI453
ag2
aa(lp133
I460
aI452
ag2
aa(lp134
I482
aI453
ag2
aa(lp135
I511
aI444
ag2
aa(lp136
I547
aI438
ag2
aa(lp137
I582
aI427
ag2
aa(lp138
I614
aI428
ag2
aa(lp139
I647
aI413
ag2
aa(lp140
I682
aI408
ag2
aa(lp141
I710
aI422
ag2
aa(lp142
I746
aI436
ag2
aa(lp143
I768
aI453
ag2
aa(lp144
I772
aI470
ag2
aa(lp145
I775
aI489
ag2
aa(lp146
I778
aI511
ag2
aa(lp147
I778
aI533
ag2
aa(lp148
I778
aI549
ag2
aa(lp149
I779
aI573
ag2
aa(lp150
I79
aI582
ag2
aa(lp151
I107
aI584
ag2
aa(lp152
I134
aI583
ag2
aa(lp153
I162
aI585
ag2
aa(lp154
I224
aI586
ag2
aa(lp155
I251
aI586
ag2
aa(lp156
I279
aI586
ag2
aa(lp157
I304
aI585
ag2
aa(lp158
I332
aI586
ag2
aa(lp159
I357
aI583
ag2
aa(lp160
I194
aI585
ag2
aa(lp161
I144
aI469
ag2
aa(lp162
I170
aI477
ag2
aa(lp163
I200
aI489
ag2
aa(lp164
I233
aI491
ag2
aa(lp165
I266
aI491
ag2
aa(lp166
I386
aI581
ag2
aa(lp167
I420
aI576
ag2
aa(lp168
I445
aI573
ag2
aa(lp169
I469
aI565
ag2
aa(lp170
I497
aI553
ag2
aa(lp171
I526
aI538
ag2
aa(lp172
I559
aI531
ag2
aa(lp173
I588
aI529
ag2
aa(lp174
I637
aI532
ag2
aa(lp175
I612
aI532
ag2
aa(lp176
I644
aI548
ag2
aa(lp177
I645
aI564
ag2
aa(lp178
I644
aI582
ag2
aa(lp179
I-17
aI8
ag2
aa(lp180
I-17
aI23
ag2
aa(lp181
I-17
aI37
ag2
aa(lp182
I-17
aI50
ag2
aa(lp183
I-17
aI64
ag2
aa(lp184
I690
aI132
aS'checkpoint'
p185
aa(lp186
I84
aI276
ag185
aa.