(lp0
(I-16
I-11
tp1
a(I10
I-10
tp2
a(I38
I-12
tp3
a(I62
I-11
tp4
a(I90
I-11
tp5
a(I119
I-11
tp6
a(I147
I-11
tp7
a(I181
I-11
tp8
a(I213
I-11
tp9
a(I249
I-11
tp10
a(I282
I-10
tp11
a(I305
I-12
tp12
a(I334
I-12
tp13
a(I363
I-11
tp14
a(I397
I-9
tp15
a(I421
I-11
tp16
a(I450
I-11
tp17
a(I480
I-11
tp18
a(I505
I-11
tp19
a(I530
I-12
tp20
a(I554
I-11
tp21
a(I584
I-11
tp22
a(I611
I-11
tp23
a(I638
I-10
tp24
a(I660
I-12
tp25
a(I685
I-10
tp26
a(I-12
I80
tp27
a(I26
I80
tp28
a(I53
I81
tp29
a(I82
I81
tp30
a(I117
I82
tp31
a(I146
I81
tp32
a(I169
I81
tp33
a(I198
I82
tp34
a(I228
I82
tp35
a(I258
I82
tp36
a(I291
I81
tp37
a(I322
I80
tp38
a(I353
I79
tp39
a(I387
I80
tp40
a(I421
I80
tp41
a(I451
I78
tp42
a(I481
I80
tp43
a(I506
I80
tp44
a(I535
I80
tp45
a(I565
I83
tp46
a(I592
I100
tp47
a(I607
I124
tp48
a(I613
I140
tp49
a(I614
I161
tp50
a(I607
I178
tp51
a(I586
I200
tp52
a(I557
I212
tp53
a(I528
I223
tp54
a(I498
I234
tp55
a(I464
I249
tp56
a(I431
I258
tp57
a(I399
I256
tp58
a(I366
I250
tp59
a(I334
I238
tp60
a(I301
I229
tp61
a(I269
I216
tp62
a(I239
I204
tp63
a(I204
I195
tp64
a(I175
I188
tp65
a(I145
I177
tp66
a(I111
I167
tp67
a(I77
I165
tp68
a(I46
I175
tp69
a(I27
I196
tp70
a(I10
I218
tp71
a(I-7
I234
tp72
a(I-9
I252
tp73
a(I-12
I277
tp74
a(I-12
I298
tp75
a(I-4
I320
tp76
a(I-6
I341
tp77
a(I-5
I362
tp78
a(I-7
I386
tp79
a(I-8
I411
tp80
a(I691
I11
tp81
a(I726
I29
tp82
a(I751
I50
tp83
a(I763
I75
tp84
a(I774
I135
tp85
a(I768
I91
tp86
a(I769
I112
tp87
a(I771
I156
tp88
a(I773
I175
tp89
a(I769
I198
tp90
a(I764
I214
tp91
a(I760
I236
tp92
a(I745
I258
tp93
a(I720
I280
tp94
a(I696
I297
tp95
a(I668
I315
tp96
a(I639
I330
tp97
a(I604
I348
tp98
a(I570
I363
tp99
a(I540
I373
tp100
a(I505
I378
tp101
a(I473
I383
tp102
a(I439
I388
tp103
a(I404
I388
tp104
a(I371
I384
tp105
a(I338
I376
tp106
a(I298
I359
tp107
a(I265
I346
tp108
a(I236
I328
tp109
a(I201
I317
tp110
a(I169
I315
tp111
a(I142
I327
tp112
a(I135
I344
tp113
a(I135
I367
tp114
a(I136
I391
tp115
a(I131
I413
tp116
a(I130
I434
tp117
a(I132
I451
tp118
a(I-9
I433
tp119
a(I-8
I448
tp120
a(I-8
I467
tp121
a(I4
I488
tp122
a(I4
I512
tp123
a(I20
I531
tp124
a(I51
I576
tp125
a(I37
I551
tp126
a(I298
I495
tp127
a(I331
I492
tp128
a(I362
I479
tp129
a(I400
I466
tp130
a(I434
I453
tp131
a(I460
I452
tp132
a(I482
I453
tp133
a(I511
I444
tp134
a(I547
I438
tp135
a(I582
I427
tp136
a(I614
I428
tp137
a(I647
I413
tp138
a(I682
I408
tp139
a(I710
I422
tp140
a(I746
I436
tp141
a(I768
I453
tp142
a(I772
I470
tp143
a(I775
I489
tp144
a(I778
I511
tp145
a(I778
I533
tp146
a(I778
I549
tp147
a(I779
I573
tp148
a(I79
I582
tp149
a(I107
I584
tp150
a(I134
I583
tp151
a(I162
I585
tp152
a(I224
I586
tp153
a(I251
I586
tp154
a(I279
I586
tp155
a(I304
I585
tp156
a(I332
I586
tp157
a(I357
I583
tp158
a(I194
I585
tp159
a(I144
I469
tp160
a(I170
I477
tp161
a(I200
I489
tp162
a(I233
I491
tp163
a(I266
I491
tp164
a(I386
I581
tp165
a(I420
I576
tp166
a(I445
I573
tp167
a(I469
I565
tp168
a(I497
I553
tp169
a(I526
I538
tp170
a(I559
I531
tp171
a(I588
I529
tp172
a(I637
I532
tp173
a(I612
I532
tp174
a(I644
I548
tp175
a(I645
I564
tp176
a(I644
I582
tp177
a(I-17
I8
tp178
a(I-17
I23
tp179
a(I-17
I37
tp180
a(I-17
I50
tp181
a(I-17
I64
tp182
a.